; Function Attrs: mustprogress uwtable
define noundef nonnull align 8 dereferenceable(104) ptr @_ZN4LIEF5MachO10DataInCode3addERKNS0_13DataCodeEntryE(ptr noundef nonnull returned align 8 dereferenceable(104) %0, ptr noundef nonnull align 8 dereferenceable(20) %1) local_unnamed_addr #0 align 2 {
  %3 = getelementptr inbounds i8, ptr %0, i64 72
  %4 = load ptr, ptr %3, align 8
  %5 = getelementptr inbounds i8, ptr %0, i64 80
  %6 = load ptr, ptr %5, align 8
  %.not.i = icmp eq ptr %4, %6
  br i1 %.not.i, label %10, label %7

7:                                                ; preds = %2
  tail call void @_ZN4LIEF5MachO13DataCodeEntryC1ERKS1_(ptr noundef nonnull align 8 dereferenceable(20) %4, ptr noundef nonnull align 8 dereferenceable(20) %1)
  %8 = load ptr, ptr %3, align 8
  %9 = getelementptr inbounds i8, ptr %8, i64 24
  store ptr %9, ptr %3, align 8
  br label %_ZNSt6vectorIN4LIEF5MachO13DataCodeEntryESaIS2_EE9push_backERKS2_.exit

10:                                               ; preds = %2
  %11 = getelementptr inbounds i8, ptr %0, i64 64
  tail call void @_ZNSt6vectorIN4LIEF5MachO13DataCodeEntryESaIS2_EE17_M_realloc_insertIJRKS2_EEEvN9__gnu_cxx17__normal_iteratorIPS2_S4_EEDpOT_(ptr noundef nonnull align 8 dereferenceable(24) %11, ptr %4, ptr noundef nonnull align 8 dereferenceable(20) %1)
  br label %_ZNSt6vectorIN4LIEF5MachO13DataCodeEntryESaIS2_EE9push_backERKS2_.exit

_ZNSt6vectorIN4LIEF5MachO13DataCodeEntryESaIS2_EE9push_backERKS2_.exit: ; preds = %7, %10
  ret ptr %0
}